
main.o:     file format elf32-littleriscv


Disassembly of section .text:

00000000 <func1>:
   0:	fe010113          	addi	sp,sp,-32
   4:	00112e23          	sw	ra,28(sp)
   8:	00812c23          	sw	s0,24(sp)
   c:	02010413          	addi	s0,sp,32
  10:	fea42623          	sw	a0,-20(s0)
  14:	fec42703          	lw	a4,-20(s0)
  18:	00100793          	li	a5,1
  1c:	00f71663          	bne	a4,a5,28 <func1+0x28>
  20:	00100793          	li	a5,1
  24:	0300006f          	j	54 <func1+0x54>
  28:	fec42703          	lw	a4,-20(s0)
  2c:	00100793          	li	a5,1
  30:	02e7d263          	bge	a5,a4,54 <func1+0x54>
  34:	fec42783          	lw	a5,-20(s0)
  38:	fff78793          	addi	a5,a5,-1
  3c:	00078513          	mv	a0,a5
  40:	fc1ff0ef          	jal	ra,0 <func1>
  44:	00050713          	mv	a4,a0
  48:	fec42783          	lw	a5,-20(s0)
  4c:	02f707b3          	mul	a5,a4,a5
  50:	0040006f          	j	54 <func1+0x54>
  54:	00078513          	mv	a0,a5
  58:	01c12083          	lw	ra,28(sp)
  5c:	01812403          	lw	s0,24(sp)
  60:	02010113          	addi	sp,sp,32
  64:	00008067          	ret

00000068 <func2>:
  68:	fd010113          	addi	sp,sp,-48
  6c:	02812623          	sw	s0,44(sp)
  70:	03010413          	addi	s0,sp,48
  74:	fca42e23          	sw	a0,-36(s0)
  78:	fdc42703          	lw	a4,-36(s0)
  7c:	00100793          	li	a5,1
  80:	00f70863          	beq	a4,a5,90 <func2+0x28>
  84:	fdc42703          	lw	a4,-36(s0)
  88:	00200793          	li	a5,2
  8c:	00f71663          	bne	a4,a5,98 <func2+0x30>
  90:	00100793          	li	a5,1
  94:	05c0006f          	j	f0 <func2+0x88>
  98:	00200793          	li	a5,2
  9c:	fef42623          	sw	a5,-20(s0)
  a0:	00100793          	li	a5,1
  a4:	fef42423          	sw	a5,-24(s0)
  a8:	00100793          	li	a5,1
  ac:	fef42223          	sw	a5,-28(s0)
  b0:	0300006f          	j	e0 <func2+0x78>
  b4:	fe442703          	lw	a4,-28(s0)
  b8:	fe842783          	lw	a5,-24(s0)
  bc:	00f707b3          	add	a5,a4,a5
  c0:	fef42223          	sw	a5,-28(s0)
  c4:	fe442703          	lw	a4,-28(s0)
  c8:	fe842783          	lw	a5,-24(s0)
  cc:	40f707b3          	sub	a5,a4,a5
  d0:	fef42423          	sw	a5,-24(s0)
  d4:	fec42783          	lw	a5,-20(s0)
  d8:	00178793          	addi	a5,a5,1
  dc:	fef42623          	sw	a5,-20(s0)
  e0:	fec42703          	lw	a4,-20(s0)
  e4:	fdc42783          	lw	a5,-36(s0)
  e8:	fcf746e3          	blt	a4,a5,b4 <func2+0x4c>
  ec:	fe442783          	lw	a5,-28(s0)
  f0:	00078513          	mv	a0,a5
  f4:	02c12403          	lw	s0,44(sp)
  f8:	03010113          	addi	sp,sp,48
  fc:	00008067          	ret

00000100 <main>:
 100:	fd010113          	addi	sp,sp,-48
 104:	02112623          	sw	ra,44(sp)
 108:	02812423          	sw	s0,40(sp)
 10c:	03010413          	addi	s0,sp,48
 110:	fca42e23          	sw	a0,-36(s0)
 114:	fcb42c23          	sw	a1,-40(s0)
 118:	00a00793          	li	a5,10
 11c:	fef42623          	sw	a5,-20(s0)
 120:	fec42503          	lw	a0,-20(s0)
 124:	eddff0ef          	jal	ra,0 <func1>
 128:	fea42423          	sw	a0,-24(s0)
 12c:	fec42503          	lw	a0,-20(s0)
 130:	f39ff0ef          	jal	ra,68 <func2>
 134:	fea42223          	sw	a0,-28(s0)
 138:	00000793          	li	a5,0
 13c:	00078513          	mv	a0,a5
 140:	02c12083          	lw	ra,44(sp)
 144:	02812403          	lw	s0,40(sp)
 148:	03010113          	addi	sp,sp,48
 14c:	00008067          	ret
